; Function Attrs: nounwind uwtable
define hidden void @zim_SimpleXMLElement_next(ptr nocapture noundef readonly %0, ptr nocapture readnone %1) #1 {
  %3 = getelementptr inbounds i8, ptr %0, i64 44
  %4 = load i32, ptr %3, align 4
  %.not = icmp eq i32 %4, 0
  br i1 %.not, label %.critedge, label %5

5:                                                ; preds = %2
  tail call void @zend_wrong_parameters_none_error() #14
  %6 = load ptr, ptr getelementptr inbounds (%struct._zend_executor_globals, ptr @executor_globals, i64 0, i32 50), align 8
  %7 = icmp ne ptr %6, null
  tail call void @llvm.assume(i1 %7)
  br label %php_sxe_move_forward_iterator.exit

.critedge:                                        ; preds = %2
  %8 = getelementptr inbounds i8, ptr %0, i64 32
  %9 = load ptr, ptr %8, align 8
  %10 = getelementptr inbounds i8, ptr %9, i64 -96
  %11 = getelementptr inbounds i8, ptr %9, i64 -40
  %12 = getelementptr inbounds i8, ptr %9, i64 -32
  %13 = load i8, ptr %12, align 8
  %14 = icmp eq i8 %13, 0
  br i1 %14, label %php_sxe_move_forward_iterator.exit, label %15

15:                                               ; preds = %.critedge
  %16 = load ptr, ptr %11, align 8
  %17 = getelementptr inbounds i8, ptr %16, i64 -96
  %18 = load ptr, ptr %17, align 8
  %.not.i = icmp eq ptr %18, null
  br i1 %.not.i, label %.thread17.i, label %19

19:                                               ; preds = %15
  %20 = load ptr, ptr %18, align 8
  %.not13.i = icmp eq ptr %20, null
  br i1 %.not13.i, label %.thread17.i, label %21

.thread17.i:                                      ; preds = %19, %15
  tail call void (ptr, ptr, ...) @zend_throw_error(ptr noundef null, ptr noundef nonnull @.str.1) #14
  tail call void @zval_ptr_dtor(ptr noundef nonnull %11) #14
  store i32 0, ptr %12, align 8
  br label %php_sxe_move_forward_iterator.exit

21:                                               ; preds = %19
  tail call void @zval_ptr_dtor(ptr noundef nonnull %11) #14
  store i32 0, ptr %12, align 8
  %22 = getelementptr inbounds i8, ptr %20, i64 48
  %23 = load ptr, ptr %22, align 8
  %24 = tail call fastcc ptr @php_sxe_iterator_fetch(ptr noundef nonnull %10, ptr noundef %23, i32 noundef 1)
  br label %php_sxe_move_forward_iterator.exit

php_sxe_move_forward_iterator.exit:               ; preds = %21, %.thread17.i, %.critedge, %5
  ret void
}